; Function Attrs: nounwind uwtable
define internal range(i32 -1, 1) i32 @H5D__contig_io_term(ptr readnone captures(none) %0, ptr noundef captures(none) %1) #0 {
  %3 = load i8, ptr @H5D_init_g, align 1, !tbaa !3, !range !7, !noundef !8
  %4 = trunc nuw i8 %3 to i1
  %5 = load i8, ptr @H5_libterm_g, align 1, !range !7
  %6 = trunc nuw i8 %5 to i1
  %7 = xor i1 %6, true
  %8 = select i1 %4, i1 true, i1 %7
  br i1 %8, label %9, label %20, !prof !9

9:                                                ; preds = %2
  %10 = getelementptr inbounds nuw i8, ptr %1, i64 192
  %11 = load ptr, ptr %10, align 8, !tbaa !51
  %.not = icmp eq ptr %11, null
  br i1 %.not, label %20, label %12

12:                                               ; preds = %9
  %13 = tail call i32 @H5D__free_piece_info(ptr noundef nonnull %11, ptr noundef null, ptr noundef null) #9
  %14 = icmp slt i32 %13, 0
  br i1 %14, label %15, label %19

15:                                               ; preds = %12
  %16 = load i64, ptr @H5E_DATASET_g, align 8, !tbaa !48
  %17 = load i64, ptr @H5E_CANTFREE_g, align 8, !tbaa !48
  %18 = tail call i32 (ptr, ptr, i32, i64, i64, ptr, ...) @H5E_printf_stack(ptr noundef nonnull @.str.1, ptr noundef nonnull @__func__.H5D__contig_io_term, i32 noundef 1625, i64 noundef %16, i64 noundef %17, ptr noundef nonnull @.str.54) #9
  br label %20

19:                                               ; preds = %12
  store ptr null, ptr %10, align 8, !tbaa !51
  br label %20

20:                                               ; preds = %15, %19, %9, %2
  %.0 = phi i32 [ -1, %15 ], [ 0, %19 ], [ 0, %9 ], [ 0, %2 ]
  ret i32 %.0
}